target datalayout = "e-m:e-p270:32:32-p271:32:32-p272:64:64-i64:64-i128:128-f80:128-n8:16:32:64-S128"
target triple = "x86_64-pc-linux-gnu"

%struct.ndps_req_hash_key = type { ptr, i32 }

; Function Attrs: nounwind uwtable
define internal i32 @ndps_hash(ptr noundef %0) #0 {
  %2 = alloca ptr, align 8
  %3 = alloca ptr, align 8
  store ptr %0, ptr %2, align 8
  %4 = load ptr, ptr %2, align 8
  store ptr %4, ptr %3, align 8
  %5 = load ptr, ptr %3, align 8
  %6 = getelementptr inbounds %struct.ndps_req_hash_key, ptr %5, i32 0, i32 0
  %7 = load ptr, ptr %6, align 8
  %8 = ptrtoint ptr %7 to i64
  %9 = trunc i64 %8 to i32
  %10 = load ptr, ptr %3, align 8
  %11 = getelementptr inbounds %struct.ndps_req_hash_key, ptr %10, i32 0, i32 1
  %12 = load i32, ptr %11, align 8
  %13 = add i32 %9, %12
  ret i32 %13
}